target datalayout = "e-m:e-p270:32:32-p271:32:32-p272:64:64-i64:64-i128:128-f80:128-n8:16:32:64-S128"
target triple = "x86_64-pc-linux-gnu"

%struct.ossl_method_construct_method_st = type { ptr, ptr, ptr, ptr, ptr, ptr, ptr }
%struct.decoder_data_st = type { ptr, i32, ptr, ptr, ptr, i8 }

@.str = private unnamed_addr constant [47 x i8] c"../openssl/crypto/encode_decode/decoder_meth.c\00", align 1
@.str.1 = private unnamed_addr constant [1 x i8] zeroinitializer, align 1
@__func__.inner_ossl_decoder_fetch = private unnamed_addr constant [25 x i8] c"inner_ossl_decoder_fetch\00", align 1
@.str.2 = private unnamed_addr constant [36 x i8] c"%s, Name (%s : %d), Properties (%s)\00", align 1
@.str.3 = private unnamed_addr constant [7 x i8] c"<null>\00", align 1

; Function Attrs: nounwind uwtable
define internal ptr @get_decoder_store(ptr noundef %0) #0 {
  %2 = alloca ptr, align 8
  store ptr %0, ptr %2, align 8, !tbaa !29
  %3 = load ptr, ptr %2, align 8, !tbaa !29
  %4 = call ptr @ossl_lib_ctx_get_data(ptr noundef %3, i32 noundef 11)
  ret ptr %4
}

; Function Attrs: nounwind uwtable
define internal ptr @inner_ossl_decoder_fetch(ptr noundef %0, ptr noundef %1, ptr noundef %2) #0 {
  %4 = alloca ptr, align 8
  %5 = alloca ptr, align 8
  %6 = alloca ptr, align 8
  %7 = alloca ptr, align 8
  %8 = alloca ptr, align 8
  %9 = alloca ptr, align 8
  %10 = alloca ptr, align 8
  %11 = alloca ptr, align 8
  %12 = alloca i32, align 4
  %13 = alloca i32, align 4
  %14 = alloca i32, align 4
  %15 = alloca %struct.ossl_method_construct_method_st, align 8
  %16 = alloca ptr, align 8
  %17 = alloca i32, align 4
  store ptr %0, ptr %5, align 8, !tbaa !53
  store ptr %1, ptr %6, align 8, !tbaa !48
  store ptr %2, ptr %7, align 8, !tbaa !48
  call void @llvm.lifetime.start.p0(i64 8, ptr %8) #7
  %18 = load ptr, ptr %5, align 8, !tbaa !53
  %19 = getelementptr inbounds nuw %struct.decoder_data_st, ptr %18, i32 0, i32 0
  %20 = load ptr, ptr %19, align 8, !tbaa !49
  %21 = call ptr @get_decoder_store(ptr noundef %20)
  store ptr %21, ptr %8, align 8, !tbaa !55
  call void @llvm.lifetime.start.p0(i64 8, ptr %9) #7
  %22 = load ptr, ptr %5, align 8, !tbaa !53
  %23 = getelementptr inbounds nuw %struct.decoder_data_st, ptr %22, i32 0, i32 0
  %24 = load ptr, ptr %23, align 8, !tbaa !49
  %25 = call ptr @ossl_namemap_stored(ptr noundef %24)
  store ptr %25, ptr %9, align 8, !tbaa !56
  call void @llvm.lifetime.start.p0(i64 8, ptr %10) #7
  %26 = load ptr, ptr %7, align 8, !tbaa !48
  %27 = icmp ne ptr %26, null
  br i1 %27, label %28, label %30

28:                                               ; preds = %3
  %29 = load ptr, ptr %7, align 8, !tbaa !48
  br label %31

30:                                               ; preds = %3
  br label %31

31:                                               ; preds = %30, %28
  %32 = phi ptr [ %29, %28 ], [ @.str.1, %30 ]
  store ptr %32, ptr %10, align 8, !tbaa !48
  call void @llvm.lifetime.start.p0(i64 8, ptr %11) #7
  store ptr null, ptr %11, align 8, !tbaa !10
  call void @llvm.lifetime.start.p0(i64 4, ptr %12) #7
  call void @llvm.lifetime.start.p0(i64 4, ptr %13) #7
  %33 = load ptr, ptr %8, align 8, !tbaa !55
  %34 = icmp eq ptr %33, null
  br i1 %34, label %38, label %35

35:                                               ; preds = %31
  %36 = load ptr, ptr %9, align 8, !tbaa !56
  %37 = icmp eq ptr %36, null
  br i1 %37, label %38, label %39

38:                                               ; preds = %35, %31
  call void @ERR_new()
  call void @ERR_set_debug(ptr noundef @.str, i32 noundef 361, ptr noundef @__func__.inner_ossl_decoder_fetch)
  call void (i32, i32, ptr, ...) @ERR_set_error(i32 noundef 60, i32 noundef 524550, ptr noundef null)
  store ptr null, ptr %4, align 8
  store i32 1, ptr %14, align 4
  br label %153

39:                                               ; preds = %35
  %40 = load ptr, ptr %6, align 8, !tbaa !48
  %41 = icmp ne ptr %40, null
  br i1 %41, label %42, label %46

42:                                               ; preds = %39
  %43 = load ptr, ptr %9, align 8, !tbaa !56
  %44 = load ptr, ptr %6, align 8, !tbaa !48
  %45 = call i32 @ossl_namemap_name2num(ptr noundef %43, ptr noundef %44)
  br label %47

46:                                               ; preds = %39
  br label %47

47:                                               ; preds = %46, %42
  %48 = phi i32 [ %45, %42 ], [ 0, %46 ]
  store i32 %48, ptr %13, align 4, !tbaa !8
  %49 = load i32, ptr %13, align 4, !tbaa !8
  %50 = icmp eq i32 %49, 0
  %51 = zext i1 %50 to i32
  store i32 %51, ptr %12, align 4, !tbaa !8
  %52 = load i32, ptr %13, align 4, !tbaa !8
  %53 = icmp eq i32 %52, 0
  br i1 %53, label %60, label %54

54:                                               ; preds = %47
  %55 = load ptr, ptr %8, align 8, !tbaa !55
  %56 = load i32, ptr %13, align 4, !tbaa !8
  %57 = load ptr, ptr %10, align 8, !tbaa !48
  %58 = call i32 @ossl_method_store_cache_get(ptr noundef %55, ptr noundef null, i32 noundef %56, ptr noundef %57, ptr noundef %11)
  %59 = icmp ne i32 %58, 0
  br i1 %59, label %111, label %60

60:                                               ; preds = %54, %47
  call void @llvm.lifetime.start.p0(i64 56, ptr %15) #7
  call void @llvm.memcpy.p0.p0.i64(ptr align 8 %15, ptr align 8 @__const.inner_ossl_decoder_fetch.mcm, i64 56, i1 false)
  call void @llvm.lifetime.start.p0(i64 8, ptr %16) #7
  store ptr null, ptr %16, align 8, !tbaa !24
  %61 = load i32, ptr %13, align 4, !tbaa !8
  %62 = load ptr, ptr %5, align 8, !tbaa !53
  %63 = getelementptr inbounds nuw %struct.decoder_data_st, ptr %62, i32 0, i32 1
  store i32 %61, ptr %63, align 8, !tbaa !58
  %64 = load ptr, ptr %6, align 8, !tbaa !48
  %65 = load ptr, ptr %5, align 8, !tbaa !53
  %66 = getelementptr inbounds nuw %struct.decoder_data_st, ptr %65, i32 0, i32 2
  store ptr %64, ptr %66, align 8, !tbaa !59
  %67 = load ptr, ptr %10, align 8, !tbaa !48
  %68 = load ptr, ptr %5, align 8, !tbaa !53
  %69 = getelementptr inbounds nuw %struct.decoder_data_st, ptr %68, i32 0, i32 3
  store ptr %67, ptr %69, align 8, !tbaa !60
  %70 = load ptr, ptr %5, align 8, !tbaa !53
  %71 = getelementptr inbounds nuw %struct.decoder_data_st, ptr %70, i32 0, i32 5
  %72 = load i8, ptr %71, align 8
  %73 = and i8 %72, -2
  %74 = or i8 %73, 0
  store i8 %74, ptr %71, align 8
  %75 = load ptr, ptr %5, align 8, !tbaa !53
  %76 = getelementptr inbounds nuw %struct.decoder_data_st, ptr %75, i32 0, i32 0
  %77 = load ptr, ptr %76, align 8, !tbaa !49
  %78 = load ptr, ptr %5, align 8, !tbaa !53
  %79 = call ptr @ossl_method_construct(ptr noundef %77, i32 noundef 21, ptr noundef %16, i32 noundef 0, ptr noundef %15, ptr noundef %78)
  store ptr %79, ptr %11, align 8, !tbaa !10
  %80 = icmp ne ptr %79, null
  br i1 %80, label %81, label %102

81:                                               ; preds = %60
  %82 = load i32, ptr %13, align 4, !tbaa !8
  %83 = icmp eq i32 %82, 0
  br i1 %83, label %84, label %91

84:                                               ; preds = %81
  %85 = load ptr, ptr %6, align 8, !tbaa !48
  %86 = icmp ne ptr %85, null
  br i1 %86, label %87, label %91

87:                                               ; preds = %84
  %88 = load ptr, ptr %9, align 8, !tbaa !56
  %89 = load ptr, ptr %6, align 8, !tbaa !48
  %90 = call i32 @ossl_namemap_name2num(ptr noundef %88, ptr noundef %89)
  store i32 %90, ptr %13, align 4, !tbaa !8
  br label %91

91:                                               ; preds = %87, %84, %81
  %92 = load i32, ptr %13, align 4, !tbaa !8
  %93 = icmp ne i32 %92, 0
  br i1 %93, label %94, label %101

94:                                               ; preds = %91
  %95 = load ptr, ptr %8, align 8, !tbaa !55
  %96 = load ptr, ptr %16, align 8, !tbaa !24
  %97 = load i32, ptr %13, align 4, !tbaa !8
  %98 = load ptr, ptr %10, align 8, !tbaa !48
  %99 = load ptr, ptr %11, align 8, !tbaa !10
  %100 = call i32 @ossl_method_store_cache_set(ptr noundef %95, ptr noundef %96, i32 noundef %97, ptr noundef %98, ptr noundef %99, ptr noundef @up_ref_decoder, ptr noundef @free_decoder)
  br label %101

101:                                              ; preds = %94, %91
  br label %102

102:                                              ; preds = %101, %60
  %103 = load ptr, ptr %5, align 8, !tbaa !53
  %104 = getelementptr inbounds nuw %struct.decoder_data_st, ptr %103, i32 0, i32 5
  %105 = load i8, ptr %104, align 8
  %106 = and i8 %105, 1
  %107 = zext i8 %106 to i32
  %108 = icmp ne i32 %107, 0
  %109 = xor i1 %108, true
  %110 = zext i1 %109 to i32
  store i32 %110, ptr %12, align 4, !tbaa !8
  call void @llvm.lifetime.end.p0(i64 8, ptr %16) #7
  call void @llvm.lifetime.end.p0(i64 56, ptr %15) #7
  br label %111

111:                                              ; preds = %102, %54
  %112 = load i32, ptr %13, align 4, !tbaa !8
  %113 = icmp ne i32 %112, 0
  br i1 %113, label %117, label %114

114:                                              ; preds = %111
  %115 = load ptr, ptr %6, align 8, !tbaa !48
  %116 = icmp ne ptr %115, null
  br i1 %116, label %117, label %151

117:                                              ; preds = %114, %111
  %118 = load ptr, ptr %11, align 8, !tbaa !10
  %119 = icmp eq ptr %118, null
  br i1 %119, label %120, label %151

120:                                              ; preds = %117
  call void @llvm.lifetime.start.p0(i64 4, ptr %17) #7
  %121 = load i32, ptr %12, align 4, !tbaa !8
  %122 = icmp ne i32 %121, 0
  %123 = select i1 %122, i32 524556, i32 524557
  store i32 %123, ptr %17, align 4, !tbaa !8
  %124 = load ptr, ptr %6, align 8, !tbaa !48
  %125 = icmp eq ptr %124, null
  br i1 %125, label %126, label %130

126:                                              ; preds = %120
  %127 = load ptr, ptr %9, align 8, !tbaa !56
  %128 = load i32, ptr %13, align 4, !tbaa !8
  %129 = call ptr @ossl_namemap_num2name(ptr noundef %127, i32 noundef %128, i64 noundef 0)
  store ptr %129, ptr %6, align 8, !tbaa !48
  br label %130

130:                                              ; preds = %126, %120
  call void @ERR_new()
  call void @ERR_set_debug(ptr noundef @.str, i32 noundef 418, ptr noundef @__func__.inner_ossl_decoder_fetch)
  %131 = load i32, ptr %17, align 4, !tbaa !8
  %132 = load ptr, ptr %5, align 8, !tbaa !53
  %133 = getelementptr inbounds nuw %struct.decoder_data_st, ptr %132, i32 0, i32 0
  %134 = load ptr, ptr %133, align 8, !tbaa !49
  %135 = call ptr @ossl_lib_ctx_get_descriptor(ptr noundef %134)
  %136 = load ptr, ptr %6, align 8, !tbaa !48
  %137 = icmp eq ptr %136, null
  br i1 %137, label %138, label %139

138:                                              ; preds = %130
  br label %141

139:                                              ; preds = %130
  %140 = load ptr, ptr %6, align 8, !tbaa !48
  br label %141

141:                                              ; preds = %139, %138
  %142 = phi ptr [ @.str.3, %138 ], [ %140, %139 ]
  %143 = load i32, ptr %13, align 4, !tbaa !8
  %144 = load ptr, ptr %7, align 8, !tbaa !48
  %145 = icmp eq ptr %144, null
  br i1 %145, label %146, label %147

146:                                              ; preds = %141
  br label %149

147:                                              ; preds = %141
  %148 = load ptr, ptr %7, align 8, !tbaa !48
  br label %149

149:                                              ; preds = %147, %146
  %150 = phi ptr [ @.str.3, %146 ], [ %148, %147 ]
  call void (i32, i32, ptr, ...) @ERR_set_error(i32 noundef 60, i32 noundef %131, ptr noundef @.str.2, ptr noundef %135, ptr noundef %142, i32 noundef %143, ptr noundef %150)
  call void @llvm.lifetime.end.p0(i64 4, ptr %17) #7
  br label %151

151:                                              ; preds = %149, %117, %114
  %152 = load ptr, ptr %11, align 8, !tbaa !10
  store ptr %152, ptr %4, align 8
  store i32 1, ptr %14, align 4
  br label %153

153:                                              ; preds = %151, %38
  call void @llvm.lifetime.end.p0(i64 4, ptr %13) #7
  call void @llvm.lifetime.end.p0(i64 4, ptr %12) #7
  call void @llvm.lifetime.end.p0(i64 8, ptr %11) #7
  call void @llvm.lifetime.end.p0(i64 8, ptr %10) #7
  call void @llvm.lifetime.end.p0(i64 8, ptr %9) #7
  call void @llvm.lifetime.end.p0(i64 8, ptr %8) #7
  %154 = load ptr, ptr %4, align 8
  ret ptr %154
}